target datalayout = "e-m:e-p270:32:32-p271:32:32-p272:64:64-i64:64-i128:128-f80:128-n8:16:32:64-S128"
target triple = "x86_64-pc-linux-gnu"

%struct.AVRational = type { i32, i32 }
%struct.mkv_track = type { i32, i32, i64, i32, i32, i32, i32, i64, i64, i64, i64, i64, i64, i32, i32, i64, i64, i64, ptr }

@ff_log2_tab = external constant [256 x i8], align 16

; Function Attrs: alwaysinline nounwind willreturn memory(none) uwtable
define internal i32 @ff_log2_c(i32 noundef %0) #6 {
  %2 = alloca i32, align 4
  %3 = alloca i32, align 4
  store i32 %0, ptr %2, align 4, !tbaa !30
  call void @llvm.lifetime.start.p0(i64 4, ptr %3) #16
  store i32 0, ptr %3, align 4, !tbaa !30
  %4 = load i32, ptr %2, align 4, !tbaa !30
  %5 = and i32 %4, -65536
  %6 = icmp ne i32 %5, 0
  br i1 %6, label %7, label %12

7:                                                ; preds = %1
  %8 = load i32, ptr %2, align 4, !tbaa !30
  %9 = lshr i32 %8, 16
  store i32 %9, ptr %2, align 4, !tbaa !30
  %10 = load i32, ptr %3, align 4, !tbaa !30
  %11 = add nsw i32 %10, 16
  store i32 %11, ptr %3, align 4, !tbaa !30
  br label %12

12:                                               ; preds = %7, %1
  %13 = load i32, ptr %2, align 4, !tbaa !30
  %14 = and i32 %13, 65280
  %15 = icmp ne i32 %14, 0
  br i1 %15, label %16, label %21

16:                                               ; preds = %12
  %17 = load i32, ptr %2, align 4, !tbaa !30
  %18 = lshr i32 %17, 8
  store i32 %18, ptr %2, align 4, !tbaa !30
  %19 = load i32, ptr %3, align 4, !tbaa !30
  %20 = add nsw i32 %19, 8
  store i32 %20, ptr %3, align 4, !tbaa !30
  br label %21

21:                                               ; preds = %16, %12
  %22 = load i32, ptr %2, align 4, !tbaa !30
  %23 = zext i32 %22 to i64
  %24 = getelementptr inbounds nuw [256 x i8], ptr @ff_log2_tab, i64 0, i64 %23
  %25 = load i8, ptr %24, align 1, !tbaa !122
  %26 = zext i8 %25 to i32
  %27 = load i32, ptr %3, align 4, !tbaa !30
  %28 = add nsw i32 %27, %26
  store i32 %28, ptr %3, align 4, !tbaa !30
  %29 = load i32, ptr %3, align 4, !tbaa !30
  call void @llvm.lifetime.end.p0(i64 4, ptr %3) #16
  ret i32 %29
}

; Function Attrs: nounwind uwtable
define internal i32 @ebml_id_size(i32 noundef %0) #0 {
  %2 = alloca i32, align 4
  store i32 %0, ptr %2, align 4, !tbaa !30
  %3 = load i32, ptr %2, align 4, !tbaa !30
  %4 = call i32 @ff_log2_c(i32 noundef %3) #19
  %5 = add i32 %4, 7
  %6 = udiv i32 %5, 8
  ret i32 %6
}

; Function Attrs: nounwind uwtable
define internal void @put_ebml_id(ptr noundef %0, i32 noundef %1) #0 {
  %3 = alloca ptr, align 8
  %4 = alloca i32, align 4
  %5 = alloca i32, align 4
  store ptr %0, ptr %3, align 8, !tbaa !29
  store i32 %1, ptr %4, align 4, !tbaa !30
  call void @llvm.lifetime.start.p0(i64 4, ptr %5) #16
  %6 = load i32, ptr %4, align 4, !tbaa !30
  %7 = call i32 @ebml_id_size(i32 noundef %6)
  store i32 %7, ptr %5, align 4, !tbaa !30
  br label %8

8:                                                ; preds = %12, %2
  %9 = load i32, ptr %5, align 4, !tbaa !30
  %10 = add nsw i32 %9, -1
  store i32 %10, ptr %5, align 4, !tbaa !30
  %11 = icmp ne i32 %9, 0
  br i1 %11, label %12, label %20

12:                                               ; preds = %8
  %13 = load ptr, ptr %3, align 8, !tbaa !29
  %14 = load i32, ptr %4, align 4, !tbaa !30
  %15 = load i32, ptr %5, align 4, !tbaa !30
  %16 = mul nsw i32 %15, 8
  %17 = lshr i32 %14, %16
  %18 = trunc i32 %17 to i8
  %19 = zext i8 %18 to i32
  call void @avio_w8(ptr noundef %13, i32 noundef %19)
  br label %8, !llvm.loop !140

20:                                               ; preds = %8
  call void @llvm.lifetime.end.p0(i64 4, ptr %5) #16
  ret void
}

; Function Attrs: nounwind uwtable
define internal void @put_ebml_uint(ptr noundef %0, i32 noundef %1, i64 noundef %2) #0 {
  %4 = alloca ptr, align 8
  %5 = alloca i32, align 4
  %6 = alloca i64, align 8
  %7 = alloca i32, align 4
  %8 = alloca i32, align 4
  %9 = alloca i64, align 8
  store ptr %0, ptr %4, align 8, !tbaa !29
  store i32 %1, ptr %5, align 4, !tbaa !30
  store i64 %2, ptr %6, align 8, !tbaa !79
  call void @llvm.lifetime.start.p0(i64 4, ptr %7) #16
  call void @llvm.lifetime.start.p0(i64 4, ptr %8) #16
  store i32 1, ptr %8, align 4, !tbaa !30
  call void @llvm.lifetime.start.p0(i64 8, ptr %9) #16
  %10 = load i64, ptr %6, align 8, !tbaa !79
  store i64 %10, ptr %9, align 8, !tbaa !79
  br label %11

11:                                               ; preds = %15, %3
  %12 = load i64, ptr %9, align 8, !tbaa !79
  %13 = lshr i64 %12, 8
  store i64 %13, ptr %9, align 8, !tbaa !79
  %14 = icmp ne i64 %13, 0
  br i1 %14, label %15, label %18

15:                                               ; preds = %11
  %16 = load i32, ptr %8, align 4, !tbaa !30
  %17 = add nsw i32 %16, 1
  store i32 %17, ptr %8, align 4, !tbaa !30
  br label %11, !llvm.loop !206

18:                                               ; preds = %11
  %19 = load ptr, ptr %4, align 8, !tbaa !29
  %20 = load i32, ptr %5, align 4, !tbaa !30
  call void @put_ebml_id(ptr noundef %19, i32 noundef %20)
  %21 = load ptr, ptr %4, align 8, !tbaa !29
  %22 = load i32, ptr %8, align 4, !tbaa !30
  %23 = sext i32 %22 to i64
  call void @put_ebml_length(ptr noundef %21, i64 noundef %23, i32 noundef 0)
  %24 = load i32, ptr %8, align 4, !tbaa !30
  %25 = sub nsw i32 %24, 1
  store i32 %25, ptr %7, align 4, !tbaa !30
  br label %26

26:                                               ; preds = %38, %18
  %27 = load i32, ptr %7, align 4, !tbaa !30
  %28 = icmp sge i32 %27, 0
  br i1 %28, label %29, label %41

29:                                               ; preds = %26
  %30 = load ptr, ptr %4, align 8, !tbaa !29
  %31 = load i64, ptr %6, align 8, !tbaa !79
  %32 = load i32, ptr %7, align 4, !tbaa !30
  %33 = mul nsw i32 %32, 8
  %34 = zext i32 %33 to i64
  %35 = lshr i64 %31, %34
  %36 = trunc i64 %35 to i8
  %37 = zext i8 %36 to i32
  call void @avio_w8(ptr noundef %30, i32 noundef %37)
  br label %38

38:                                               ; preds = %29
  %39 = load i32, ptr %7, align 4, !tbaa !30
  %40 = add nsw i32 %39, -1
  store i32 %40, ptr %7, align 4, !tbaa !30
  br label %26, !llvm.loop !207

41:                                               ; preds = %26
  call void @llvm.lifetime.end.p0(i64 8, ptr %9) #16
  call void @llvm.lifetime.end.p0(i64 4, ptr %8) #16
  call void @llvm.lifetime.end.p0(i64 4, ptr %7) #16
  ret void
}

; Function Attrs: nounwind uwtable
define internal void @mkv_write_default_duration(ptr noundef %0, ptr noundef %1, i64 %2) #0 {
  %4 = alloca %struct.AVRational, align 4
  %5 = alloca ptr, align 8
  %6 = alloca ptr, align 8
  store i64 %2, ptr %4, align 4
  store ptr %0, ptr %5, align 8, !tbaa !88
  store ptr %1, ptr %6, align 8, !tbaa !29
  %7 = load ptr, ptr %6, align 8, !tbaa !29
  %8 = getelementptr inbounds nuw %struct.AVRational, ptr %4, i32 0, i32 0
  %9 = load i32, ptr %8, align 4, !tbaa !221
  %10 = sext i32 %9 to i64
  %11 = mul nsw i64 1000000000, %10
  %12 = getelementptr inbounds nuw %struct.AVRational, ptr %4, i32 0, i32 1
  %13 = load i32, ptr %12, align 4, !tbaa !222
  %14 = sext i32 %13 to i64
  %15 = sdiv i64 %11, %14
  call void @put_ebml_uint(ptr noundef %7, i32 noundef 2352003, i64 noundef %15)
  %16 = getelementptr inbounds nuw %struct.AVRational, ptr %4, i32 0, i32 0
  %17 = load i32, ptr %16, align 4, !tbaa !221
  %18 = sext i32 %17 to i64
  %19 = mul nsw i64 1000, %18
  %20 = getelementptr inbounds nuw %struct.AVRational, ptr %4, i32 0, i32 1
  %21 = load i32, ptr %20, align 4, !tbaa !222
  %22 = sext i32 %21 to i64
  %23 = sdiv i64 %19, %22
  %24 = load ptr, ptr %5, align 8, !tbaa !88
  %25 = getelementptr inbounds nuw %struct.mkv_track, ptr %24, i32 0, i32 16
  store i64 %23, ptr %25, align 8, !tbaa !252
  %26 = load ptr, ptr %5, align 8, !tbaa !88
  %27 = getelementptr inbounds nuw %struct.mkv_track, ptr %26, i32 0, i32 16
  %28 = load i64, ptr %27, align 8, !tbaa !252
  %29 = getelementptr inbounds nuw %struct.AVRational, ptr %4, i32 0, i32 0
  %30 = load i32, ptr %29, align 4, !tbaa !221
  %31 = sext i32 %30 to i64
  %32 = mul nsw i64 1000, %31
  %33 = getelementptr inbounds nuw %struct.AVRational, ptr %4, i32 0, i32 1
  %34 = load i32, ptr %33, align 4, !tbaa !222
  %35 = sext i32 %34 to i64
  %36 = srem i64 %32, %35
  %37 = icmp ne i64 %36, 0
  %38 = xor i1 %37, true
  %39 = xor i1 %38, true
  %40 = zext i1 %39 to i32
  %41 = sext i32 %40 to i64
  %42 = add i64 %28, %41
  %43 = load ptr, ptr %5, align 8, !tbaa !88
  %44 = getelementptr inbounds nuw %struct.mkv_track, ptr %43, i32 0, i32 17
  store i64 %42, ptr %44, align 8, !tbaa !253
  ret void
}