; Function Attrs: nounwind uwtable
define internal fastcc void @mkv_write_default_duration(ptr noundef writeonly captures(none) %0, ptr noundef %1, i64 range(i64 1, 0) %2) unnamed_addr #0 {
  %sext = shl i64 %2, 32
  %4 = ashr exact i64 %sext, 32
  %5 = mul nsw i64 %4, 1000000000
  %6 = ashr i64 %2, 32
  %7 = sdiv i64 %5, %6
  %.not15.i = icmp ult i64 %7, 256
  br i1 %.not15.i, label %._crit_edge.i, label %.lr.ph.i

.lr.ph.i:                                         ; preds = %3, %.lr.ph.i
  %.017.i = phi i64 [ %8, %.lr.ph.i ], [ %7, %3 ]
  %.01216.i = phi i32 [ %9, %.lr.ph.i ], [ 1, %3 ]
  %8 = lshr i64 %.017.i, 8
  %9 = add nuw nsw i32 %.01216.i, 1
  %.not.i = icmp ult i64 %.017.i, 65536
  br i1 %.not.i, label %._crit_edge.loopexit.i, label %.lr.ph.i, !llvm.loop !97

._crit_edge.loopexit.i:                           ; preds = %.lr.ph.i
  %10 = zext nneg i32 %9 to i64
  br label %._crit_edge.i

._crit_edge.i:                                    ; preds = %._crit_edge.loopexit.i, %3
  %.012.lcssa.i = phi i64 [ 1, %3 ], [ %10, %._crit_edge.loopexit.i ]
  %11 = load i8, ptr getelementptr inbounds nuw (i8, ptr @ff_log2_tab, i64 35), align 1, !tbaa !50
  %12 = zext i8 %11 to i32
  %13 = add nuw nsw i32 %12, 23
  %14 = lshr i32 %13, 3
  br label %.lr.ph.i.i

.lr.ph.i.i:                                       ; preds = %.lr.ph.i.i, %._crit_edge.i
  %.05.i.i = phi i32 [ %15, %.lr.ph.i.i ], [ %14, %._crit_edge.i ]
  %15 = add nsw i32 %.05.i.i, -1
  %16 = shl nsw i32 %15, 3
  %17 = lshr i32 2352003, %16
  %18 = and i32 %17, 227
  tail call void @avio_w8(ptr noundef %1, i32 noundef %18) #14
  %.not.i.i = icmp eq i32 %15, 0
  br i1 %.not.i.i, label %put_ebml_id.exit.i, label %.lr.ph.i.i, !llvm.loop !51

put_ebml_id.exit.i:                               ; preds = %.lr.ph.i.i
  tail call fastcc void @put_ebml_length(ptr noundef %1, i64 noundef %.012.lcssa.i, i32 noundef 0)
  br label %19

19:                                               ; preds = %19, %put_ebml_id.exit.i
  %indvars.iv.i = phi i64 [ %.012.lcssa.i, %put_ebml_id.exit.i ], [ %indvars.iv.next.i, %19 ]
  %indvars.iv.next.i = add nsw i64 %indvars.iv.i, -1
  %20 = shl nsw i64 %indvars.iv.next.i, 3
  %21 = lshr i64 %7, %20
  %22 = trunc i64 %21 to i32
  %23 = and i32 %22, 255
  tail call void @avio_w8(ptr noundef %1, i32 noundef %23) #14
  %24 = icmp samesign ugt i64 %indvars.iv.i, 1
  br i1 %24, label %19, label %put_ebml_uint.exit, !llvm.loop !60

put_ebml_uint.exit:                               ; preds = %19
  %25 = mul nsw i64 %4, 1000
  %26 = sdiv i64 %25, %6
  %27 = getelementptr inbounds nuw i8, ptr %0, i64 96
  store i64 %26, ptr %27, align 8, !tbaa !281
  %28 = srem i64 %25, %6
  %29 = icmp ne i64 %28, 0
  %30 = zext i1 %29 to i64
  %31 = add nsw i64 %26, %30
  %32 = getelementptr inbounds nuw i8, ptr %0, i64 104
  store i64 %31, ptr %32, align 8, !tbaa !282
  ret void
}